ARM GAS  C:\Users\milesh\AppData\Local\Temp\ccddjwQY.s 			page 1


   1              		.syntax unified
   2              		.cpu cortex-m3
   3              		.fpu softvfp
   4              		.eabi_attribute 20, 1
   5              		.eabi_attribute 21, 1
   6              		.eabi_attribute 23, 3
   7              		.eabi_attribute 24, 1
   8              		.eabi_attribute 25, 1
   9              		.eabi_attribute 26, 1
  10              		.eabi_attribute 30, 6
  11              		.eabi_attribute 18, 4
  12              		.thumb
  13              		.file	"Player1_Rx.c"
  20 0000 5C010000 		.text
  20      02006200 
  20      00000201 
  20      FB0E0D00 
  20      01010101 
  21              	.Ltext0:
  22              		.cfi_sections	.debug_frame
  23              		.global	Player1_Rx
  24              		.bss
  25              		.type	Player1_Rx, %object
  26              		.size	Player1_Rx, 1
  27              	Player1_Rx:
  28 0000 00       		.space	1
  29              		.global	Player1_Rx_flag
  30              		.type	Player1_Rx_flag, %object
  31              		.size	Player1_Rx_flag, 1
  32              	Player1_Rx_flag:
  33 0001 00       		.space	1
  34              		.section	.text.Player1_Rx_Start,"ax",%progbits
  35              		.align	2
  36              		.global	Player1_Rx_Start
  37              		.thumb
  38              		.thumb_func
  39              		.type	Player1_Rx_Start, %function
  40              	Player1_Rx_Start:
  41              	.LFB0:
  42              		.file 1 ".\\Generated_Source\\PSoC5\\Player1_Rx.c"
   1:.\Generated_Source\PSoC5/Player1_Rx.c **** /*******************************************************************************
   2:.\Generated_Source\PSoC5/Player1_Rx.c **** * File Name: Player1_Rx.c  
   3:.\Generated_Source\PSoC5/Player1_Rx.c **** * Version 1.70
   4:.\Generated_Source\PSoC5/Player1_Rx.c **** *
   5:.\Generated_Source\PSoC5/Player1_Rx.c **** *  Description:
   6:.\Generated_Source\PSoC5/Player1_Rx.c **** *   API for controlling the state of an interrupt.
   7:.\Generated_Source\PSoC5/Player1_Rx.c **** *
   8:.\Generated_Source\PSoC5/Player1_Rx.c **** *
   9:.\Generated_Source\PSoC5/Player1_Rx.c **** *  Note:
  10:.\Generated_Source\PSoC5/Player1_Rx.c **** *
  11:.\Generated_Source\PSoC5/Player1_Rx.c **** ********************************************************************************
ARM GAS  C:\Users\milesh\AppData\Local\Temp\ccddjwQY.s 			page 2


  12:.\Generated_Source\PSoC5/Player1_Rx.c **** * Copyright 2008-2012, Cypress Semiconductor Corporation.  All rights reserved.
  13:.\Generated_Source\PSoC5/Player1_Rx.c **** * You may use this file only in accordance with the license, terms, conditions, 
  14:.\Generated_Source\PSoC5/Player1_Rx.c **** * disclaimers, and limitations in the end user license agreement accompanying 
  15:.\Generated_Source\PSoC5/Player1_Rx.c **** * the software package with which this file was provided.
  16:.\Generated_Source\PSoC5/Player1_Rx.c **** *******************************************************************************/
  17:.\Generated_Source\PSoC5/Player1_Rx.c **** 
  18:.\Generated_Source\PSoC5/Player1_Rx.c **** 
  19:.\Generated_Source\PSoC5/Player1_Rx.c **** #include <CYDEVICE_TRM.H>
  20:.\Generated_Source\PSoC5/Player1_Rx.c **** #include <CYLIB.H>
  21:.\Generated_Source\PSoC5/Player1_Rx.c **** #include <Player1_Rx.H>
  22:.\Generated_Source\PSoC5/Player1_Rx.c **** 
  23:.\Generated_Source\PSoC5/Player1_Rx.c **** #if !defined(Player1_Rx__REMOVED) /* Check for removal by optimization */
  24:.\Generated_Source\PSoC5/Player1_Rx.c **** 
  25:.\Generated_Source\PSoC5/Player1_Rx.c **** /*******************************************************************************
  26:.\Generated_Source\PSoC5/Player1_Rx.c **** *  Place your includes, defines and code here 
  27:.\Generated_Source\PSoC5/Player1_Rx.c **** ********************************************************************************/
  28:.\Generated_Source\PSoC5/Player1_Rx.c **** #include <PlayerBT1.H>
  29:.\Generated_Source\PSoC5/Player1_Rx.c **** /* `#START Player1_Rx_intc` */
  30:.\Generated_Source\PSoC5/Player1_Rx.c **** uint8 Player1_Rx = 0;
  31:.\Generated_Source\PSoC5/Player1_Rx.c **** uint8 Player1_Rx_flag = 0;
  32:.\Generated_Source\PSoC5/Player1_Rx.c **** /* `#END` */
  33:.\Generated_Source\PSoC5/Player1_Rx.c **** 
  34:.\Generated_Source\PSoC5/Player1_Rx.c **** #ifndef CYINT_IRQ_BASE
  35:.\Generated_Source\PSoC5/Player1_Rx.c **** #define CYINT_IRQ_BASE      16
  36:.\Generated_Source\PSoC5/Player1_Rx.c **** #endif /* CYINT_IRQ_BASE */
  37:.\Generated_Source\PSoC5/Player1_Rx.c **** #ifndef CYINT_VECT_TABLE
  38:.\Generated_Source\PSoC5/Player1_Rx.c **** #define CYINT_VECT_TABLE    ((cyisraddress **) CYREG_NVIC_VECT_OFFSET)
  39:.\Generated_Source\PSoC5/Player1_Rx.c **** #endif /* CYINT_VECT_TABLE */
  40:.\Generated_Source\PSoC5/Player1_Rx.c **** 
  41:.\Generated_Source\PSoC5/Player1_Rx.c **** /* Declared in startup, used to set unused interrupts to. */
  42:.\Generated_Source\PSoC5/Player1_Rx.c **** CY_ISR_PROTO(IntDefaultHandler);
  43:.\Generated_Source\PSoC5/Player1_Rx.c **** 
  44:.\Generated_Source\PSoC5/Player1_Rx.c **** 
  45:.\Generated_Source\PSoC5/Player1_Rx.c **** /*******************************************************************************
  46:.\Generated_Source\PSoC5/Player1_Rx.c **** * Function Name: Player1_Rx_Start
  47:.\Generated_Source\PSoC5/Player1_Rx.c **** ********************************************************************************
  48:.\Generated_Source\PSoC5/Player1_Rx.c **** *
  49:.\Generated_Source\PSoC5/Player1_Rx.c **** * Summary:
  50:.\Generated_Source\PSoC5/Player1_Rx.c **** *  Set up the interrupt and enable it.
  51:.\Generated_Source\PSoC5/Player1_Rx.c **** *
  52:.\Generated_Source\PSoC5/Player1_Rx.c **** * Parameters:  
  53:.\Generated_Source\PSoC5/Player1_Rx.c **** *   None
  54:.\Generated_Source\PSoC5/Player1_Rx.c **** *
  55:.\Generated_Source\PSoC5/Player1_Rx.c **** * Return:
  56:.\Generated_Source\PSoC5/Player1_Rx.c **** *   None
  57:.\Generated_Source\PSoC5/Player1_Rx.c **** *
  58:.\Generated_Source\PSoC5/Player1_Rx.c **** *******************************************************************************/
  59:.\Generated_Source\PSoC5/Player1_Rx.c **** void Player1_Rx_Start(void)
  60:.\Generated_Source\PSoC5/Player1_Rx.c **** {
  43              		.loc 1 60 0
  44              		.cfi_startproc
  45              		@ args = 0, pretend = 0, frame = 0
  46              		@ frame_needed = 1, uses_anonymous_args = 0
  47 0000 80B5     		push	{r7, lr}
  48              	.LCFI0:
  49              		.cfi_def_cfa_offset 8
  50 0002 00AF     		add	r7, sp, #0
ARM GAS  C:\Users\milesh\AppData\Local\Temp\ccddjwQY.s 			page 3


  51              		.cfi_offset 14, -4
  52              		.cfi_offset 7, -8
  53              	.LCFI1:
  54              		.cfi_def_cfa_register 7
  61:.\Generated_Source\PSoC5/Player1_Rx.c ****     /* For all we know the interrupt is active. */
  62:.\Generated_Source\PSoC5/Player1_Rx.c ****     Player1_Rx_Disable();
  55              		.loc 1 62 0
  56 0004 FFF7FEFF 		bl	Player1_Rx_Disable
  63:.\Generated_Source\PSoC5/Player1_Rx.c **** 
  64:.\Generated_Source\PSoC5/Player1_Rx.c ****     /* Set the ISR to point to the Player1_Rx Interrupt. */
  65:.\Generated_Source\PSoC5/Player1_Rx.c ****     Player1_Rx_SetVector(&Player1_Rx_Interrupt);
  57              		.loc 1 65 0
  58 0008 40F20000 		movw	r0, #:lower16:Player1_Rx_Interrupt
  59 000c C0F20000 		movt	r0, #:upper16:Player1_Rx_Interrupt
  60 0010 FFF7FEFF 		bl	Player1_Rx_SetVector
  66:.\Generated_Source\PSoC5/Player1_Rx.c **** 
  67:.\Generated_Source\PSoC5/Player1_Rx.c ****     /* Set the priority. */
  68:.\Generated_Source\PSoC5/Player1_Rx.c ****     Player1_Rx_SetPriority((uint8)Player1_Rx_INTC_PRIOR_NUMBER);
  61              		.loc 1 68 0
  62 0014 4FF00700 		mov	r0, #7
  63 0018 FFF7FEFF 		bl	Player1_Rx_SetPriority
  69:.\Generated_Source\PSoC5/Player1_Rx.c **** 
  70:.\Generated_Source\PSoC5/Player1_Rx.c ****     /* Enable it. */
  71:.\Generated_Source\PSoC5/Player1_Rx.c ****     Player1_Rx_Enable();
  64              		.loc 1 71 0
  65 001c FFF7FEFF 		bl	Player1_Rx_Enable
  72:.\Generated_Source\PSoC5/Player1_Rx.c **** }
  66              		.loc 1 72 0
  67 0020 80BD     		pop	{r7, pc}
  68              		.cfi_endproc
  69              	.LFE0:
  70              		.size	Player1_Rx_Start, .-Player1_Rx_Start
  71 0022 00BF     		.section	.text.Player1_Rx_StartEx,"ax",%progbits
  72              		.align	2
  73              		.global	Player1_Rx_StartEx
  74              		.thumb
  75              		.thumb_func
  76              		.type	Player1_Rx_StartEx, %function
  77              	Player1_Rx_StartEx:
  78              	.LFB1:
  73:.\Generated_Source\PSoC5/Player1_Rx.c **** 
  74:.\Generated_Source\PSoC5/Player1_Rx.c **** 
  75:.\Generated_Source\PSoC5/Player1_Rx.c **** /*******************************************************************************
  76:.\Generated_Source\PSoC5/Player1_Rx.c **** * Function Name: Player1_Rx_StartEx
  77:.\Generated_Source\PSoC5/Player1_Rx.c **** ********************************************************************************
  78:.\Generated_Source\PSoC5/Player1_Rx.c **** *
  79:.\Generated_Source\PSoC5/Player1_Rx.c **** * Summary:
  80:.\Generated_Source\PSoC5/Player1_Rx.c **** *  Set up the interrupt and enable it.
  81:.\Generated_Source\PSoC5/Player1_Rx.c **** *
  82:.\Generated_Source\PSoC5/Player1_Rx.c **** * Parameters:  
  83:.\Generated_Source\PSoC5/Player1_Rx.c **** *   address: Address of the ISR to set in the interrupt vector table.
  84:.\Generated_Source\PSoC5/Player1_Rx.c **** *
  85:.\Generated_Source\PSoC5/Player1_Rx.c **** * Return:
  86:.\Generated_Source\PSoC5/Player1_Rx.c **** *   None
  87:.\Generated_Source\PSoC5/Player1_Rx.c **** *
  88:.\Generated_Source\PSoC5/Player1_Rx.c **** *******************************************************************************/
  89:.\Generated_Source\PSoC5/Player1_Rx.c **** void Player1_Rx_StartEx(cyisraddress address)
ARM GAS  C:\Users\milesh\AppData\Local\Temp\ccddjwQY.s 			page 4


  90:.\Generated_Source\PSoC5/Player1_Rx.c **** {
  79              		.loc 1 90 0
  80              		.cfi_startproc
  81              		@ args = 0, pretend = 0, frame = 8
  82              		@ frame_needed = 1, uses_anonymous_args = 0
  83 0000 80B5     		push	{r7, lr}
  84              	.LCFI2:
  85              		.cfi_def_cfa_offset 8
  86 0002 82B0     		sub	sp, sp, #8
  87              	.LCFI3:
  88              		.cfi_def_cfa_offset 16
  89 0004 00AF     		add	r7, sp, #0
  90              		.cfi_offset 14, -4
  91              		.cfi_offset 7, -8
  92              	.LCFI4:
  93              		.cfi_def_cfa_register 7
  94 0006 7860     		str	r0, [r7, #4]
  91:.\Generated_Source\PSoC5/Player1_Rx.c ****     /* For all we know the interrupt is active. */
  92:.\Generated_Source\PSoC5/Player1_Rx.c ****     Player1_Rx_Disable();
  95              		.loc 1 92 0
  96 0008 FFF7FEFF 		bl	Player1_Rx_Disable
  93:.\Generated_Source\PSoC5/Player1_Rx.c **** 
  94:.\Generated_Source\PSoC5/Player1_Rx.c ****     /* Set the ISR to point to the Player1_Rx Interrupt. */
  95:.\Generated_Source\PSoC5/Player1_Rx.c ****     Player1_Rx_SetVector(address);
  97              		.loc 1 95 0
  98 000c 7868     		ldr	r0, [r7, #4]
  99 000e FFF7FEFF 		bl	Player1_Rx_SetVector
  96:.\Generated_Source\PSoC5/Player1_Rx.c **** 
  97:.\Generated_Source\PSoC5/Player1_Rx.c ****     /* Set the priority. */
  98:.\Generated_Source\PSoC5/Player1_Rx.c ****     Player1_Rx_SetPriority((uint8)Player1_Rx_INTC_PRIOR_NUMBER);
 100              		.loc 1 98 0
 101 0012 4FF00700 		mov	r0, #7
 102 0016 FFF7FEFF 		bl	Player1_Rx_SetPriority
  99:.\Generated_Source\PSoC5/Player1_Rx.c **** 
 100:.\Generated_Source\PSoC5/Player1_Rx.c ****     /* Enable it. */
 101:.\Generated_Source\PSoC5/Player1_Rx.c ****     Player1_Rx_Enable();
 103              		.loc 1 101 0
 104 001a FFF7FEFF 		bl	Player1_Rx_Enable
 102:.\Generated_Source\PSoC5/Player1_Rx.c **** }
 105              		.loc 1 102 0
 106 001e 07F10807 		add	r7, r7, #8
 107 0022 BD46     		mov	sp, r7
 108 0024 80BD     		pop	{r7, pc}
 109              		.cfi_endproc
 110              	.LFE1:
 111              		.size	Player1_Rx_StartEx, .-Player1_Rx_StartEx
 112 0026 00BF     		.section	.text.Player1_Rx_Stop,"ax",%progbits
 113              		.align	2
 114              		.global	Player1_Rx_Stop
 115              		.thumb
 116              		.thumb_func
 117              		.type	Player1_Rx_Stop, %function
 118              	Player1_Rx_Stop:
 119              	.LFB2:
 103:.\Generated_Source\PSoC5/Player1_Rx.c **** 
 104:.\Generated_Source\PSoC5/Player1_Rx.c **** 
 105:.\Generated_Source\PSoC5/Player1_Rx.c **** /*******************************************************************************
ARM GAS  C:\Users\milesh\AppData\Local\Temp\ccddjwQY.s 			page 5


 106:.\Generated_Source\PSoC5/Player1_Rx.c **** * Function Name: Player1_Rx_Stop
 107:.\Generated_Source\PSoC5/Player1_Rx.c **** ********************************************************************************
 108:.\Generated_Source\PSoC5/Player1_Rx.c **** *
 109:.\Generated_Source\PSoC5/Player1_Rx.c **** * Summary:
 110:.\Generated_Source\PSoC5/Player1_Rx.c **** *   Disables and removes the interrupt.
 111:.\Generated_Source\PSoC5/Player1_Rx.c **** *
 112:.\Generated_Source\PSoC5/Player1_Rx.c **** * Parameters:  
 113:.\Generated_Source\PSoC5/Player1_Rx.c **** *
 114:.\Generated_Source\PSoC5/Player1_Rx.c **** * Return:
 115:.\Generated_Source\PSoC5/Player1_Rx.c **** *   None
 116:.\Generated_Source\PSoC5/Player1_Rx.c **** *
 117:.\Generated_Source\PSoC5/Player1_Rx.c **** *******************************************************************************/
 118:.\Generated_Source\PSoC5/Player1_Rx.c **** void Player1_Rx_Stop(void)
 119:.\Generated_Source\PSoC5/Player1_Rx.c **** {
 120              		.loc 1 119 0
 121              		.cfi_startproc
 122              		@ args = 0, pretend = 0, frame = 0
 123              		@ frame_needed = 1, uses_anonymous_args = 0
 124 0000 80B5     		push	{r7, lr}
 125              	.LCFI5:
 126              		.cfi_def_cfa_offset 8
 127 0002 00AF     		add	r7, sp, #0
 128              		.cfi_offset 14, -4
 129              		.cfi_offset 7, -8
 130              	.LCFI6:
 131              		.cfi_def_cfa_register 7
 120:.\Generated_Source\PSoC5/Player1_Rx.c ****     /* Disable this interrupt. */
 121:.\Generated_Source\PSoC5/Player1_Rx.c ****     Player1_Rx_Disable();
 132              		.loc 1 121 0
 133 0004 FFF7FEFF 		bl	Player1_Rx_Disable
 122:.\Generated_Source\PSoC5/Player1_Rx.c **** 
 123:.\Generated_Source\PSoC5/Player1_Rx.c ****     /* Set the ISR to point to the passive one. */
 124:.\Generated_Source\PSoC5/Player1_Rx.c ****     Player1_Rx_SetVector(&IntDefaultHandler);
 134              		.loc 1 124 0
 135 0008 40F20000 		movw	r0, #:lower16:IntDefaultHandler
 136 000c C0F20000 		movt	r0, #:upper16:IntDefaultHandler
 137 0010 FFF7FEFF 		bl	Player1_Rx_SetVector
 125:.\Generated_Source\PSoC5/Player1_Rx.c **** }
 138              		.loc 1 125 0
 139 0014 80BD     		pop	{r7, pc}
 140              		.cfi_endproc
 141              	.LFE2:
 142              		.size	Player1_Rx_Stop, .-Player1_Rx_Stop
 143 0016 00BF     		.section	.text.Player1_Rx_Interrupt,"ax",%progbits
 144              		.align	2
 145              		.global	Player1_Rx_Interrupt
 146              		.thumb
 147              		.thumb_func
 148              		.type	Player1_Rx_Interrupt, %function
 149              	Player1_Rx_Interrupt:
 150              	.LFB3:
 126:.\Generated_Source\PSoC5/Player1_Rx.c **** 
 127:.\Generated_Source\PSoC5/Player1_Rx.c **** 
 128:.\Generated_Source\PSoC5/Player1_Rx.c **** /*******************************************************************************
 129:.\Generated_Source\PSoC5/Player1_Rx.c **** * Function Name: Player1_Rx_Interrupt
 130:.\Generated_Source\PSoC5/Player1_Rx.c **** ********************************************************************************
 131:.\Generated_Source\PSoC5/Player1_Rx.c **** *
ARM GAS  C:\Users\milesh\AppData\Local\Temp\ccddjwQY.s 			page 6


 132:.\Generated_Source\PSoC5/Player1_Rx.c **** * Summary:
 133:.\Generated_Source\PSoC5/Player1_Rx.c **** *   The default Interrupt Service Routine for Player1_Rx.
 134:.\Generated_Source\PSoC5/Player1_Rx.c **** *
 135:.\Generated_Source\PSoC5/Player1_Rx.c **** *   Add custom code between the coments to keep the next version of this file
 136:.\Generated_Source\PSoC5/Player1_Rx.c **** *   from over writting your code.
 137:.\Generated_Source\PSoC5/Player1_Rx.c **** *
 138:.\Generated_Source\PSoC5/Player1_Rx.c **** * Parameters:  
 139:.\Generated_Source\PSoC5/Player1_Rx.c **** *
 140:.\Generated_Source\PSoC5/Player1_Rx.c **** * Return:
 141:.\Generated_Source\PSoC5/Player1_Rx.c **** *   None
 142:.\Generated_Source\PSoC5/Player1_Rx.c **** *
 143:.\Generated_Source\PSoC5/Player1_Rx.c **** *******************************************************************************/
 144:.\Generated_Source\PSoC5/Player1_Rx.c **** CY_ISR(Player1_Rx_Interrupt)
 145:.\Generated_Source\PSoC5/Player1_Rx.c **** {
 151              		.loc 1 145 0
 152              		.cfi_startproc
 153              		@ args = 0, pretend = 0, frame = 0
 154              		@ frame_needed = 1, uses_anonymous_args = 0
 155 0000 80B5     		push	{r7, lr}
 156              	.LCFI7:
 157              		.cfi_def_cfa_offset 8
 158 0002 00AF     		add	r7, sp, #0
 159              		.cfi_offset 14, -4
 160              		.cfi_offset 7, -8
 161              	.LCFI8:
 162              		.cfi_def_cfa_register 7
 146:.\Generated_Source\PSoC5/Player1_Rx.c ****     /*  Place your Interrupt code here. */
 147:.\Generated_Source\PSoC5/Player1_Rx.c ****     /* `#START Player1_Rx_Interrupt` */
 148:.\Generated_Source\PSoC5/Player1_Rx.c ****     Player1_Rx = PlayerBT1_GetChar();
 163              		.loc 1 148 0
 164 0004 FFF7FEFF 		bl	PlayerBT1_GetChar
 165 0008 0346     		mov	r3, r0
 166 000a 1A46     		mov	r2, r3
 167 000c 40F20003 		movw	r3, #:lower16:Player1_Rx
 168 0010 C0F20003 		movt	r3, #:upper16:Player1_Rx
 169 0014 1A70     		strb	r2, [r3, #0]
 149:.\Generated_Source\PSoC5/Player1_Rx.c ****     Player1_Rx_flag = 1;
 170              		.loc 1 149 0
 171 0016 40F20003 		movw	r3, #:lower16:Player1_Rx_flag
 172 001a C0F20003 		movt	r3, #:upper16:Player1_Rx_flag
 173 001e 4FF00102 		mov	r2, #1
 174 0022 1A70     		strb	r2, [r3, #0]
 150:.\Generated_Source\PSoC5/Player1_Rx.c ****     /* `#END` */
 151:.\Generated_Source\PSoC5/Player1_Rx.c **** }
 175              		.loc 1 151 0
 176 0024 80BD     		pop	{r7, pc}
 177              		.cfi_endproc
 178              	.LFE3:
 179              		.size	Player1_Rx_Interrupt, .-Player1_Rx_Interrupt
 180 0026 00BF     		.section	.text.Player1_Rx_SetVector,"ax",%progbits
 181              		.align	2
 182              		.global	Player1_Rx_SetVector
 183              		.thumb
 184              		.thumb_func
 185              		.type	Player1_Rx_SetVector, %function
 186              	Player1_Rx_SetVector:
 187              	.LFB4:
ARM GAS  C:\Users\milesh\AppData\Local\Temp\ccddjwQY.s 			page 7


 152:.\Generated_Source\PSoC5/Player1_Rx.c **** 
 153:.\Generated_Source\PSoC5/Player1_Rx.c **** 
 154:.\Generated_Source\PSoC5/Player1_Rx.c **** /*******************************************************************************
 155:.\Generated_Source\PSoC5/Player1_Rx.c **** * Function Name: Player1_Rx_SetVector
 156:.\Generated_Source\PSoC5/Player1_Rx.c **** ********************************************************************************
 157:.\Generated_Source\PSoC5/Player1_Rx.c **** *
 158:.\Generated_Source\PSoC5/Player1_Rx.c **** * Summary:
 159:.\Generated_Source\PSoC5/Player1_Rx.c **** *   Change the ISR vector for the Interrupt. Note calling Player1_Rx_Start
 160:.\Generated_Source\PSoC5/Player1_Rx.c **** *   will override any effect this method would have had. To set the vector 
 161:.\Generated_Source\PSoC5/Player1_Rx.c **** *   before the component has been started use Player1_Rx_StartEx instead.
 162:.\Generated_Source\PSoC5/Player1_Rx.c **** *
 163:.\Generated_Source\PSoC5/Player1_Rx.c **** * Parameters:
 164:.\Generated_Source\PSoC5/Player1_Rx.c **** *   address: Address of the ISR to set in the interrupt vector table.
 165:.\Generated_Source\PSoC5/Player1_Rx.c **** *
 166:.\Generated_Source\PSoC5/Player1_Rx.c **** * Return:
 167:.\Generated_Source\PSoC5/Player1_Rx.c **** *   None
 168:.\Generated_Source\PSoC5/Player1_Rx.c **** *
 169:.\Generated_Source\PSoC5/Player1_Rx.c **** *******************************************************************************/
 170:.\Generated_Source\PSoC5/Player1_Rx.c **** void Player1_Rx_SetVector(cyisraddress address)
 171:.\Generated_Source\PSoC5/Player1_Rx.c **** {
 188              		.loc 1 171 0
 189              		.cfi_startproc
 190              		@ args = 0, pretend = 0, frame = 16
 191              		@ frame_needed = 1, uses_anonymous_args = 0
 192              		@ link register save eliminated.
 193 0000 80B4     		push	{r7}
 194              	.LCFI9:
 195              		.cfi_def_cfa_offset 4
 196 0002 85B0     		sub	sp, sp, #20
 197              	.LCFI10:
 198              		.cfi_def_cfa_offset 24
 199 0004 00AF     		add	r7, sp, #0
 200              		.cfi_offset 7, -4
 201              	.LCFI11:
 202              		.cfi_def_cfa_register 7
 203 0006 7860     		str	r0, [r7, #4]
 172:.\Generated_Source\PSoC5/Player1_Rx.c ****     cyisraddress * ramVectorTable;
 173:.\Generated_Source\PSoC5/Player1_Rx.c **** 
 174:.\Generated_Source\PSoC5/Player1_Rx.c ****     ramVectorTable = (cyisraddress *) *CYINT_VECT_TABLE;
 204              		.loc 1 174 0
 205 0008 4EF60853 		movw	r3, #:lower16:-536810232
 206 000c CEF20003 		movt	r3, #:upper16:-536810232
 207 0010 1B68     		ldr	r3, [r3, #0]
 208 0012 FB60     		str	r3, [r7, #12]
 175:.\Generated_Source\PSoC5/Player1_Rx.c **** 
 176:.\Generated_Source\PSoC5/Player1_Rx.c ****     ramVectorTable[CYINT_IRQ_BASE + (uint32)Player1_Rx__INTC_NUMBER] = address;
 209              		.loc 1 176 0
 210 0014 FB68     		ldr	r3, [r7, #12]
 211 0016 03F14003 		add	r3, r3, #64
 212 001a 7A68     		ldr	r2, [r7, #4]
 213 001c 1A60     		str	r2, [r3, #0]
 177:.\Generated_Source\PSoC5/Player1_Rx.c **** }
 214              		.loc 1 177 0
 215 001e 07F11407 		add	r7, r7, #20
 216 0022 BD46     		mov	sp, r7
 217 0024 80BC     		pop	{r7}
 218 0026 7047     		bx	lr
ARM GAS  C:\Users\milesh\AppData\Local\Temp\ccddjwQY.s 			page 8


 219              		.cfi_endproc
 220              	.LFE4:
 221              		.size	Player1_Rx_SetVector, .-Player1_Rx_SetVector
 222              		.section	.text.Player1_Rx_GetVector,"ax",%progbits
 223              		.align	2
 224              		.global	Player1_Rx_GetVector
 225              		.thumb
 226              		.thumb_func
 227              		.type	Player1_Rx_GetVector, %function
 228              	Player1_Rx_GetVector:
 229              	.LFB5:
 178:.\Generated_Source\PSoC5/Player1_Rx.c **** 
 179:.\Generated_Source\PSoC5/Player1_Rx.c **** 
 180:.\Generated_Source\PSoC5/Player1_Rx.c **** /*******************************************************************************
 181:.\Generated_Source\PSoC5/Player1_Rx.c **** * Function Name: Player1_Rx_GetVector
 182:.\Generated_Source\PSoC5/Player1_Rx.c **** ********************************************************************************
 183:.\Generated_Source\PSoC5/Player1_Rx.c **** *
 184:.\Generated_Source\PSoC5/Player1_Rx.c **** * Summary:
 185:.\Generated_Source\PSoC5/Player1_Rx.c **** *   Gets the "address" of the current ISR vector for the Interrupt.
 186:.\Generated_Source\PSoC5/Player1_Rx.c **** *
 187:.\Generated_Source\PSoC5/Player1_Rx.c **** * Parameters:
 188:.\Generated_Source\PSoC5/Player1_Rx.c **** *   None
 189:.\Generated_Source\PSoC5/Player1_Rx.c **** *
 190:.\Generated_Source\PSoC5/Player1_Rx.c **** * Return:
 191:.\Generated_Source\PSoC5/Player1_Rx.c **** *   Address of the ISR in the interrupt vector table.
 192:.\Generated_Source\PSoC5/Player1_Rx.c **** *
 193:.\Generated_Source\PSoC5/Player1_Rx.c **** *******************************************************************************/
 194:.\Generated_Source\PSoC5/Player1_Rx.c **** cyisraddress Player1_Rx_GetVector(void)
 195:.\Generated_Source\PSoC5/Player1_Rx.c **** {
 230              		.loc 1 195 0
 231              		.cfi_startproc
 232              		@ args = 0, pretend = 0, frame = 8
 233              		@ frame_needed = 1, uses_anonymous_args = 0
 234              		@ link register save eliminated.
 235 0000 80B4     		push	{r7}
 236              	.LCFI12:
 237              		.cfi_def_cfa_offset 4
 238 0002 83B0     		sub	sp, sp, #12
 239              	.LCFI13:
 240              		.cfi_def_cfa_offset 16
 241 0004 00AF     		add	r7, sp, #0
 242              		.cfi_offset 7, -4
 243              	.LCFI14:
 244              		.cfi_def_cfa_register 7
 196:.\Generated_Source\PSoC5/Player1_Rx.c ****     cyisraddress * ramVectorTable;
 197:.\Generated_Source\PSoC5/Player1_Rx.c **** 
 198:.\Generated_Source\PSoC5/Player1_Rx.c ****     ramVectorTable = (cyisraddress *) *CYINT_VECT_TABLE;
 245              		.loc 1 198 0
 246 0006 4EF60853 		movw	r3, #:lower16:-536810232
 247 000a CEF20003 		movt	r3, #:upper16:-536810232
 248 000e 1B68     		ldr	r3, [r3, #0]
 249 0010 7B60     		str	r3, [r7, #4]
 199:.\Generated_Source\PSoC5/Player1_Rx.c **** 
 200:.\Generated_Source\PSoC5/Player1_Rx.c ****     return ramVectorTable[CYINT_IRQ_BASE + (uint32)Player1_Rx__INTC_NUMBER];
 250              		.loc 1 200 0
 251 0012 7B68     		ldr	r3, [r7, #4]
 252 0014 03F14003 		add	r3, r3, #64
ARM GAS  C:\Users\milesh\AppData\Local\Temp\ccddjwQY.s 			page 9


 253 0018 1B68     		ldr	r3, [r3, #0]
 201:.\Generated_Source\PSoC5/Player1_Rx.c **** }
 254              		.loc 1 201 0
 255 001a 1846     		mov	r0, r3
 256 001c 07F10C07 		add	r7, r7, #12
 257 0020 BD46     		mov	sp, r7
 258 0022 80BC     		pop	{r7}
 259 0024 7047     		bx	lr
 260              		.cfi_endproc
 261              	.LFE5:
 262              		.size	Player1_Rx_GetVector, .-Player1_Rx_GetVector
 263 0026 00BF     		.section	.text.Player1_Rx_SetPriority,"ax",%progbits
 264              		.align	2
 265              		.global	Player1_Rx_SetPriority
 266              		.thumb
 267              		.thumb_func
 268              		.type	Player1_Rx_SetPriority, %function
 269              	Player1_Rx_SetPriority:
 270              	.LFB6:
 202:.\Generated_Source\PSoC5/Player1_Rx.c **** 
 203:.\Generated_Source\PSoC5/Player1_Rx.c **** 
 204:.\Generated_Source\PSoC5/Player1_Rx.c **** /*******************************************************************************
 205:.\Generated_Source\PSoC5/Player1_Rx.c **** * Function Name: Player1_Rx_SetPriority
 206:.\Generated_Source\PSoC5/Player1_Rx.c **** ********************************************************************************
 207:.\Generated_Source\PSoC5/Player1_Rx.c **** *
 208:.\Generated_Source\PSoC5/Player1_Rx.c **** * Summary:
 209:.\Generated_Source\PSoC5/Player1_Rx.c **** *   Sets the Priority of the Interrupt. Note calling Player1_Rx_Start
 210:.\Generated_Source\PSoC5/Player1_Rx.c **** *   or Player1_Rx_StartEx will override any effect this method 
 211:.\Generated_Source\PSoC5/Player1_Rx.c **** *   would have had. This method should only be called after 
 212:.\Generated_Source\PSoC5/Player1_Rx.c **** *   Player1_Rx_Start or Player1_Rx_StartEx has been called. To set 
 213:.\Generated_Source\PSoC5/Player1_Rx.c **** *   the initial priority for the component use the cydwr file in the tool.
 214:.\Generated_Source\PSoC5/Player1_Rx.c **** *
 215:.\Generated_Source\PSoC5/Player1_Rx.c **** * Parameters:
 216:.\Generated_Source\PSoC5/Player1_Rx.c **** *   priority: Priority of the interrupt. 0 - 7, 0 being the highest.
 217:.\Generated_Source\PSoC5/Player1_Rx.c **** *
 218:.\Generated_Source\PSoC5/Player1_Rx.c **** * Return:
 219:.\Generated_Source\PSoC5/Player1_Rx.c **** *   None
 220:.\Generated_Source\PSoC5/Player1_Rx.c **** *
 221:.\Generated_Source\PSoC5/Player1_Rx.c **** *******************************************************************************/
 222:.\Generated_Source\PSoC5/Player1_Rx.c **** void Player1_Rx_SetPriority(uint8 priority)
 223:.\Generated_Source\PSoC5/Player1_Rx.c **** {
 271              		.loc 1 223 0
 272              		.cfi_startproc
 273              		@ args = 0, pretend = 0, frame = 8
 274              		@ frame_needed = 1, uses_anonymous_args = 0
 275              		@ link register save eliminated.
 276 0000 80B4     		push	{r7}
 277              	.LCFI15:
 278              		.cfi_def_cfa_offset 4
 279 0002 83B0     		sub	sp, sp, #12
 280              	.LCFI16:
 281              		.cfi_def_cfa_offset 16
 282 0004 00AF     		add	r7, sp, #0
 283              		.cfi_offset 7, -4
 284              	.LCFI17:
 285              		.cfi_def_cfa_register 7
 286 0006 0346     		mov	r3, r0
ARM GAS  C:\Users\milesh\AppData\Local\Temp\ccddjwQY.s 			page 10


 287 0008 FB71     		strb	r3, [r7, #7]
 224:.\Generated_Source\PSoC5/Player1_Rx.c ****     *Player1_Rx_INTC_PRIOR = priority << 5;
 288              		.loc 1 224 0
 289 000a 4EF20043 		movw	r3, #:lower16:-536812544
 290 000e CEF20003 		movt	r3, #:upper16:-536812544
 291 0012 FA79     		ldrb	r2, [r7, #7]
 292 0014 4FEA4212 		lsl	r2, r2, #5
 293 0018 D2B2     		uxtb	r2, r2
 294 001a 1A70     		strb	r2, [r3, #0]
 225:.\Generated_Source\PSoC5/Player1_Rx.c **** }
 295              		.loc 1 225 0
 296 001c 07F10C07 		add	r7, r7, #12
 297 0020 BD46     		mov	sp, r7
 298 0022 80BC     		pop	{r7}
 299 0024 7047     		bx	lr
 300              		.cfi_endproc
 301              	.LFE6:
 302              		.size	Player1_Rx_SetPriority, .-Player1_Rx_SetPriority
 303 0026 00BF     		.section	.text.Player1_Rx_GetPriority,"ax",%progbits
 304              		.align	2
 305              		.global	Player1_Rx_GetPriority
 306              		.thumb
 307              		.thumb_func
 308              		.type	Player1_Rx_GetPriority, %function
 309              	Player1_Rx_GetPriority:
 310              	.LFB7:
 226:.\Generated_Source\PSoC5/Player1_Rx.c **** 
 227:.\Generated_Source\PSoC5/Player1_Rx.c **** 
 228:.\Generated_Source\PSoC5/Player1_Rx.c **** /*******************************************************************************
 229:.\Generated_Source\PSoC5/Player1_Rx.c **** * Function Name: Player1_Rx_GetPriority
 230:.\Generated_Source\PSoC5/Player1_Rx.c **** ********************************************************************************
 231:.\Generated_Source\PSoC5/Player1_Rx.c **** *
 232:.\Generated_Source\PSoC5/Player1_Rx.c **** * Summary:
 233:.\Generated_Source\PSoC5/Player1_Rx.c **** *   Gets the Priority of the Interrupt.
 234:.\Generated_Source\PSoC5/Player1_Rx.c **** *
 235:.\Generated_Source\PSoC5/Player1_Rx.c **** * Parameters:
 236:.\Generated_Source\PSoC5/Player1_Rx.c **** *   None
 237:.\Generated_Source\PSoC5/Player1_Rx.c **** *
 238:.\Generated_Source\PSoC5/Player1_Rx.c **** * Return:
 239:.\Generated_Source\PSoC5/Player1_Rx.c **** *   Priority of the interrupt. 0 - 7, 0 being the highest.
 240:.\Generated_Source\PSoC5/Player1_Rx.c **** *
 241:.\Generated_Source\PSoC5/Player1_Rx.c **** *******************************************************************************/
 242:.\Generated_Source\PSoC5/Player1_Rx.c **** uint8 Player1_Rx_GetPriority(void)
 243:.\Generated_Source\PSoC5/Player1_Rx.c **** {
 311              		.loc 1 243 0
 312              		.cfi_startproc
 313              		@ args = 0, pretend = 0, frame = 8
 314              		@ frame_needed = 1, uses_anonymous_args = 0
 315              		@ link register save eliminated.
 316 0000 80B4     		push	{r7}
 317              	.LCFI18:
 318              		.cfi_def_cfa_offset 4
 319 0002 83B0     		sub	sp, sp, #12
 320              	.LCFI19:
 321              		.cfi_def_cfa_offset 16
 322 0004 00AF     		add	r7, sp, #0
 323              		.cfi_offset 7, -4
ARM GAS  C:\Users\milesh\AppData\Local\Temp\ccddjwQY.s 			page 11


 324              	.LCFI20:
 325              		.cfi_def_cfa_register 7
 244:.\Generated_Source\PSoC5/Player1_Rx.c ****     uint8 priority;
 245:.\Generated_Source\PSoC5/Player1_Rx.c **** 
 246:.\Generated_Source\PSoC5/Player1_Rx.c **** 
 247:.\Generated_Source\PSoC5/Player1_Rx.c ****     priority = *Player1_Rx_INTC_PRIOR >> 5;
 326              		.loc 1 247 0
 327 0006 4EF20043 		movw	r3, #:lower16:-536812544
 328 000a CEF20003 		movt	r3, #:upper16:-536812544
 329 000e 1B78     		ldrb	r3, [r3, #0]
 330 0010 DBB2     		uxtb	r3, r3
 331 0012 4FEA5313 		lsr	r3, r3, #5
 332 0016 FB71     		strb	r3, [r7, #7]
 248:.\Generated_Source\PSoC5/Player1_Rx.c **** 
 249:.\Generated_Source\PSoC5/Player1_Rx.c ****     return priority;
 333              		.loc 1 249 0
 334 0018 FB79     		ldrb	r3, [r7, #7]	@ zero_extendqisi2
 250:.\Generated_Source\PSoC5/Player1_Rx.c **** }
 335              		.loc 1 250 0
 336 001a 1846     		mov	r0, r3
 337 001c 07F10C07 		add	r7, r7, #12
 338 0020 BD46     		mov	sp, r7
 339 0022 80BC     		pop	{r7}
 340 0024 7047     		bx	lr
 341              		.cfi_endproc
 342              	.LFE7:
 343              		.size	Player1_Rx_GetPriority, .-Player1_Rx_GetPriority
 344 0026 00BF     		.section	.text.Player1_Rx_Enable,"ax",%progbits
 345              		.align	2
 346              		.global	Player1_Rx_Enable
 347              		.thumb
 348              		.thumb_func
 349              		.type	Player1_Rx_Enable, %function
 350              	Player1_Rx_Enable:
 351              	.LFB8:
 251:.\Generated_Source\PSoC5/Player1_Rx.c **** 
 252:.\Generated_Source\PSoC5/Player1_Rx.c **** 
 253:.\Generated_Source\PSoC5/Player1_Rx.c **** /*******************************************************************************
 254:.\Generated_Source\PSoC5/Player1_Rx.c **** * Function Name: Player1_Rx_Enable
 255:.\Generated_Source\PSoC5/Player1_Rx.c **** ********************************************************************************
 256:.\Generated_Source\PSoC5/Player1_Rx.c **** *
 257:.\Generated_Source\PSoC5/Player1_Rx.c **** * Summary:
 258:.\Generated_Source\PSoC5/Player1_Rx.c **** *   Enables the interrupt.
 259:.\Generated_Source\PSoC5/Player1_Rx.c **** *
 260:.\Generated_Source\PSoC5/Player1_Rx.c **** * Parameters:
 261:.\Generated_Source\PSoC5/Player1_Rx.c **** *   None
 262:.\Generated_Source\PSoC5/Player1_Rx.c **** *
 263:.\Generated_Source\PSoC5/Player1_Rx.c **** * Return:
 264:.\Generated_Source\PSoC5/Player1_Rx.c **** *   None
 265:.\Generated_Source\PSoC5/Player1_Rx.c **** *
 266:.\Generated_Source\PSoC5/Player1_Rx.c **** *******************************************************************************/
 267:.\Generated_Source\PSoC5/Player1_Rx.c **** void Player1_Rx_Enable(void)
 268:.\Generated_Source\PSoC5/Player1_Rx.c **** {
 352              		.loc 1 268 0
 353              		.cfi_startproc
 354              		@ args = 0, pretend = 0, frame = 0
 355              		@ frame_needed = 1, uses_anonymous_args = 0
ARM GAS  C:\Users\milesh\AppData\Local\Temp\ccddjwQY.s 			page 12


 356              		@ link register save eliminated.
 357 0000 80B4     		push	{r7}
 358              	.LCFI21:
 359              		.cfi_def_cfa_offset 4
 360 0002 00AF     		add	r7, sp, #0
 361              		.cfi_offset 7, -4
 362              	.LCFI22:
 363              		.cfi_def_cfa_register 7
 269:.\Generated_Source\PSoC5/Player1_Rx.c ****     /* Enable the general interrupt. */
 270:.\Generated_Source\PSoC5/Player1_Rx.c ****     *Player1_Rx_INTC_SET_EN = Player1_Rx__INTC_MASK;
 364              		.loc 1 270 0
 365 0004 4EF20013 		movw	r3, #:lower16:-536813312
 366 0008 CEF20003 		movt	r3, #:upper16:-536813312
 367 000c 4FF00102 		mov	r2, #1
 368 0010 1A60     		str	r2, [r3, #0]
 271:.\Generated_Source\PSoC5/Player1_Rx.c **** }
 369              		.loc 1 271 0
 370 0012 BD46     		mov	sp, r7
 371 0014 80BC     		pop	{r7}
 372 0016 7047     		bx	lr
 373              		.cfi_endproc
 374              	.LFE8:
 375              		.size	Player1_Rx_Enable, .-Player1_Rx_Enable
 376              		.section	.text.Player1_Rx_GetState,"ax",%progbits
 377              		.align	2
 378              		.global	Player1_Rx_GetState
 379              		.thumb
 380              		.thumb_func
 381              		.type	Player1_Rx_GetState, %function
 382              	Player1_Rx_GetState:
 383              	.LFB9:
 272:.\Generated_Source\PSoC5/Player1_Rx.c **** 
 273:.\Generated_Source\PSoC5/Player1_Rx.c **** 
 274:.\Generated_Source\PSoC5/Player1_Rx.c **** /*******************************************************************************
 275:.\Generated_Source\PSoC5/Player1_Rx.c **** * Function Name: Player1_Rx_GetState
 276:.\Generated_Source\PSoC5/Player1_Rx.c **** ********************************************************************************
 277:.\Generated_Source\PSoC5/Player1_Rx.c **** *
 278:.\Generated_Source\PSoC5/Player1_Rx.c **** * Summary:
 279:.\Generated_Source\PSoC5/Player1_Rx.c **** *   Gets the state (enabled, disabled) of the Interrupt.
 280:.\Generated_Source\PSoC5/Player1_Rx.c **** *
 281:.\Generated_Source\PSoC5/Player1_Rx.c **** * Parameters:
 282:.\Generated_Source\PSoC5/Player1_Rx.c **** *   None
 283:.\Generated_Source\PSoC5/Player1_Rx.c **** *
 284:.\Generated_Source\PSoC5/Player1_Rx.c **** * Return:
 285:.\Generated_Source\PSoC5/Player1_Rx.c **** *   1 if enabled, 0 if disabled.
 286:.\Generated_Source\PSoC5/Player1_Rx.c **** *
 287:.\Generated_Source\PSoC5/Player1_Rx.c **** *******************************************************************************/
 288:.\Generated_Source\PSoC5/Player1_Rx.c **** uint8 Player1_Rx_GetState(void)
 289:.\Generated_Source\PSoC5/Player1_Rx.c **** {
 384              		.loc 1 289 0
 385              		.cfi_startproc
 386              		@ args = 0, pretend = 0, frame = 0
 387              		@ frame_needed = 1, uses_anonymous_args = 0
 388              		@ link register save eliminated.
 389 0000 80B4     		push	{r7}
 390              	.LCFI23:
 391              		.cfi_def_cfa_offset 4
ARM GAS  C:\Users\milesh\AppData\Local\Temp\ccddjwQY.s 			page 13


 392 0002 00AF     		add	r7, sp, #0
 393              		.cfi_offset 7, -4
 394              	.LCFI24:
 395              		.cfi_def_cfa_register 7
 290:.\Generated_Source\PSoC5/Player1_Rx.c ****     /* Get the state of the general interrupt. */
 291:.\Generated_Source\PSoC5/Player1_Rx.c ****     return ((*Player1_Rx_INTC_SET_EN & (uint32)Player1_Rx__INTC_MASK) != 0u) ? 1u:0u;
 396              		.loc 1 291 0
 397 0004 4EF20013 		movw	r3, #:lower16:-536813312
 398 0008 CEF20003 		movt	r3, #:upper16:-536813312
 399 000c 1B68     		ldr	r3, [r3, #0]
 400 000e 03F00103 		and	r3, r3, #1
 401 0012 DBB2     		uxtb	r3, r3
 402 0014 002B     		cmp	r3, #0
 403 0016 02D0     		beq	.L20
 404 0018 4FF00103 		mov	r3, #1
 405 001c 01E0     		b	.L21
 406              	.L20:
 407 001e 4FF00003 		mov	r3, #0
 408              	.L21:
 292:.\Generated_Source\PSoC5/Player1_Rx.c **** }
 409              		.loc 1 292 0
 410 0022 1846     		mov	r0, r3
 411 0024 BD46     		mov	sp, r7
 412 0026 80BC     		pop	{r7}
 413 0028 7047     		bx	lr
 414              		.cfi_endproc
 415              	.LFE9:
 416              		.size	Player1_Rx_GetState, .-Player1_Rx_GetState
 417 002a 00BF     		.section	.text.Player1_Rx_Disable,"ax",%progbits
 418              		.align	2
 419              		.global	Player1_Rx_Disable
 420              		.thumb
 421              		.thumb_func
 422              		.type	Player1_Rx_Disable, %function
 423              	Player1_Rx_Disable:
 424              	.LFB10:
 293:.\Generated_Source\PSoC5/Player1_Rx.c **** 
 294:.\Generated_Source\PSoC5/Player1_Rx.c **** 
 295:.\Generated_Source\PSoC5/Player1_Rx.c **** /*******************************************************************************
 296:.\Generated_Source\PSoC5/Player1_Rx.c **** * Function Name: Player1_Rx_Disable
 297:.\Generated_Source\PSoC5/Player1_Rx.c **** ********************************************************************************
 298:.\Generated_Source\PSoC5/Player1_Rx.c **** *
 299:.\Generated_Source\PSoC5/Player1_Rx.c **** * Summary:
 300:.\Generated_Source\PSoC5/Player1_Rx.c **** *   Disables the Interrupt.
 301:.\Generated_Source\PSoC5/Player1_Rx.c **** *
 302:.\Generated_Source\PSoC5/Player1_Rx.c **** * Parameters:
 303:.\Generated_Source\PSoC5/Player1_Rx.c **** *   None
 304:.\Generated_Source\PSoC5/Player1_Rx.c **** *
 305:.\Generated_Source\PSoC5/Player1_Rx.c **** * Return:
 306:.\Generated_Source\PSoC5/Player1_Rx.c **** *   None
 307:.\Generated_Source\PSoC5/Player1_Rx.c **** *
 308:.\Generated_Source\PSoC5/Player1_Rx.c **** *******************************************************************************/
 309:.\Generated_Source\PSoC5/Player1_Rx.c **** void Player1_Rx_Disable(void)
 310:.\Generated_Source\PSoC5/Player1_Rx.c **** {
 425              		.loc 1 310 0
 426              		.cfi_startproc
 427              		@ args = 0, pretend = 0, frame = 0
ARM GAS  C:\Users\milesh\AppData\Local\Temp\ccddjwQY.s 			page 14


 428              		@ frame_needed = 1, uses_anonymous_args = 0
 429              		@ link register save eliminated.
 430 0000 80B4     		push	{r7}
 431              	.LCFI25:
 432              		.cfi_def_cfa_offset 4
 433 0002 00AF     		add	r7, sp, #0
 434              		.cfi_offset 7, -4
 435              	.LCFI26:
 436              		.cfi_def_cfa_register 7
 311:.\Generated_Source\PSoC5/Player1_Rx.c ****     /* Disable the general interrupt. */
 312:.\Generated_Source\PSoC5/Player1_Rx.c ****     *Player1_Rx_INTC_CLR_EN = Player1_Rx__INTC_MASK;
 437              		.loc 1 312 0
 438 0004 4EF28013 		movw	r3, #:lower16:-536813184
 439 0008 CEF20003 		movt	r3, #:upper16:-536813184
 440 000c 4FF00102 		mov	r2, #1
 441 0010 1A60     		str	r2, [r3, #0]
 313:.\Generated_Source\PSoC5/Player1_Rx.c **** }
 442              		.loc 1 313 0
 443 0012 BD46     		mov	sp, r7
 444 0014 80BC     		pop	{r7}
 445 0016 7047     		bx	lr
 446              		.cfi_endproc
 447              	.LFE10:
 448              		.size	Player1_Rx_Disable, .-Player1_Rx_Disable
 449              		.section	.text.Player1_Rx_SetPending,"ax",%progbits
 450              		.align	2
 451              		.global	Player1_Rx_SetPending
 452              		.thumb
 453              		.thumb_func
 454              		.type	Player1_Rx_SetPending, %function
 455              	Player1_Rx_SetPending:
 456              	.LFB11:
 314:.\Generated_Source\PSoC5/Player1_Rx.c **** 
 315:.\Generated_Source\PSoC5/Player1_Rx.c **** 
 316:.\Generated_Source\PSoC5/Player1_Rx.c **** /*******************************************************************************
 317:.\Generated_Source\PSoC5/Player1_Rx.c **** * Function Name: Player1_Rx_SetPending
 318:.\Generated_Source\PSoC5/Player1_Rx.c **** ********************************************************************************
 319:.\Generated_Source\PSoC5/Player1_Rx.c **** *
 320:.\Generated_Source\PSoC5/Player1_Rx.c **** * Summary:
 321:.\Generated_Source\PSoC5/Player1_Rx.c **** *   Causes the Interrupt to enter the pending state, a software method of
 322:.\Generated_Source\PSoC5/Player1_Rx.c **** *   generating the interrupt.
 323:.\Generated_Source\PSoC5/Player1_Rx.c **** *
 324:.\Generated_Source\PSoC5/Player1_Rx.c **** * Parameters:
 325:.\Generated_Source\PSoC5/Player1_Rx.c **** *   None
 326:.\Generated_Source\PSoC5/Player1_Rx.c **** *
 327:.\Generated_Source\PSoC5/Player1_Rx.c **** * Return:
 328:.\Generated_Source\PSoC5/Player1_Rx.c **** *   None
 329:.\Generated_Source\PSoC5/Player1_Rx.c **** *
 330:.\Generated_Source\PSoC5/Player1_Rx.c **** *******************************************************************************/
 331:.\Generated_Source\PSoC5/Player1_Rx.c **** void Player1_Rx_SetPending(void)
 332:.\Generated_Source\PSoC5/Player1_Rx.c **** {
 457              		.loc 1 332 0
 458              		.cfi_startproc
 459              		@ args = 0, pretend = 0, frame = 0
 460              		@ frame_needed = 1, uses_anonymous_args = 0
 461              		@ link register save eliminated.
 462 0000 80B4     		push	{r7}
ARM GAS  C:\Users\milesh\AppData\Local\Temp\ccddjwQY.s 			page 15


 463              	.LCFI27:
 464              		.cfi_def_cfa_offset 4
 465 0002 00AF     		add	r7, sp, #0
 466              		.cfi_offset 7, -4
 467              	.LCFI28:
 468              		.cfi_def_cfa_register 7
 333:.\Generated_Source\PSoC5/Player1_Rx.c ****     *Player1_Rx_INTC_SET_PD = Player1_Rx__INTC_MASK;
 469              		.loc 1 333 0
 470 0004 4EF20023 		movw	r3, #:lower16:-536813056
 471 0008 CEF20003 		movt	r3, #:upper16:-536813056
 472 000c 4FF00102 		mov	r2, #1
 473 0010 1A60     		str	r2, [r3, #0]
 334:.\Generated_Source\PSoC5/Player1_Rx.c **** }
 474              		.loc 1 334 0
 475 0012 BD46     		mov	sp, r7
 476 0014 80BC     		pop	{r7}
 477 0016 7047     		bx	lr
 478              		.cfi_endproc
 479              	.LFE11:
 480              		.size	Player1_Rx_SetPending, .-Player1_Rx_SetPending
 481              		.section	.text.Player1_Rx_ClearPending,"ax",%progbits
 482              		.align	2
 483              		.global	Player1_Rx_ClearPending
 484              		.thumb
 485              		.thumb_func
 486              		.type	Player1_Rx_ClearPending, %function
 487              	Player1_Rx_ClearPending:
 488              	.LFB12:
 335:.\Generated_Source\PSoC5/Player1_Rx.c **** 
 336:.\Generated_Source\PSoC5/Player1_Rx.c **** 
 337:.\Generated_Source\PSoC5/Player1_Rx.c **** /*******************************************************************************
 338:.\Generated_Source\PSoC5/Player1_Rx.c **** * Function Name: Player1_Rx_ClearPending
 339:.\Generated_Source\PSoC5/Player1_Rx.c **** ********************************************************************************
 340:.\Generated_Source\PSoC5/Player1_Rx.c **** *
 341:.\Generated_Source\PSoC5/Player1_Rx.c **** * Summary:
 342:.\Generated_Source\PSoC5/Player1_Rx.c **** *   Clears a pending interrupt.
 343:.\Generated_Source\PSoC5/Player1_Rx.c **** *
 344:.\Generated_Source\PSoC5/Player1_Rx.c **** * Parameters:
 345:.\Generated_Source\PSoC5/Player1_Rx.c **** *   None
 346:.\Generated_Source\PSoC5/Player1_Rx.c **** *
 347:.\Generated_Source\PSoC5/Player1_Rx.c **** * Return:
 348:.\Generated_Source\PSoC5/Player1_Rx.c **** *   None
 349:.\Generated_Source\PSoC5/Player1_Rx.c **** *
 350:.\Generated_Source\PSoC5/Player1_Rx.c **** *******************************************************************************/
 351:.\Generated_Source\PSoC5/Player1_Rx.c **** void Player1_Rx_ClearPending(void)
 352:.\Generated_Source\PSoC5/Player1_Rx.c **** {
 489              		.loc 1 352 0
 490              		.cfi_startproc
 491              		@ args = 0, pretend = 0, frame = 0
 492              		@ frame_needed = 1, uses_anonymous_args = 0
 493              		@ link register save eliminated.
 494 0000 80B4     		push	{r7}
 495              	.LCFI29:
 496              		.cfi_def_cfa_offset 4
 497 0002 00AF     		add	r7, sp, #0
 498              		.cfi_offset 7, -4
 499              	.LCFI30:
ARM GAS  C:\Users\milesh\AppData\Local\Temp\ccddjwQY.s 			page 16


 500              		.cfi_def_cfa_register 7
 353:.\Generated_Source\PSoC5/Player1_Rx.c ****     *Player1_Rx_INTC_CLR_PD = Player1_Rx__INTC_MASK;
 501              		.loc 1 353 0
 502 0004 4EF28023 		movw	r3, #:lower16:-536812928
 503 0008 CEF20003 		movt	r3, #:upper16:-536812928
 504 000c 4FF00102 		mov	r2, #1
 505 0010 1A60     		str	r2, [r3, #0]
 354:.\Generated_Source\PSoC5/Player1_Rx.c **** }
 506              		.loc 1 354 0
 507 0012 BD46     		mov	sp, r7
 508 0014 80BC     		pop	{r7}
 509 0016 7047     		bx	lr
 510              		.cfi_endproc
 511              	.LFE12:
 512              		.size	Player1_Rx_ClearPending, .-Player1_Rx_ClearPending
 513              		.text
 514              	.Letext0: